(lp0
(S'./test'
p1
(lp2
S'Subdirectory'
p3
a(lp4
S'.DS_Store'
p5
aS'FirstFile'
p6
aS'FourthFile'
p7
aS'SecondFile'
p8
aS'ThirdFile'
p9
atp10
a(S'./test/Subdirectory'
p11
(lp12
(lp13
S'FifthFile'
p14
aS'FifthFile copy'
p15
aS'SixthFile'
p16
atp17
a.